; ModuleID = '21/710.c'
source_filename = "21/710.c"
target datalayout = "e-m:e-p270:32:32-p271:32:32-p272:64:64-i64:64-f80:128-n8:16:32:64-S128"
target triple = "x86_64-pc-linux-gnu"

@.str = private unnamed_addr constant [3 x i8] c"%d\00", align 1
@.str.1 = private unnamed_addr constant [5 x i8] c"%d%c\00", align 1

; Function Attrs: noinline nounwind uwtable
define dso_local i32 @main() #0 {
  %1 = alloca i32, align 4
  %2 = alloca i32, align 4
  %3 = alloca [500 x i32], align 16
  %4 = alloca i32, align 4
  %5 = alloca i32, align 4
  %6 = alloca i32, align 4
  %7 = alloca [500 x i32], align 16
  %8 = alloca float, align 4
  %9 = alloca [500 x float], align 16
  %10 = alloca float, align 4
  store i32 0, i32* %1, align 4
  store i32 0, i32* %6, align 4
  store float 0.000000e+00, float* %8, align 4
  store float 0.000000e+00, float* %10, align 4
  %11 = call i32 (i8*, ...) @__isoc99_scanf(i8* getelementptr inbounds ([3 x i8], [3 x i8]* @.str, i64 0, i64 0), i32* %2)
  store i32 0, i32* %4, align 4
  br label %12

12:                                               ; preds = %28, %0
  %13 = load i32, i32* %4, align 4
  %14 = load i32, i32* %2, align 4
  %15 = icmp slt i32 %13, %14
  br i1 %15, label %16, label %31

16:                                               ; preds = %12
  %17 = load i32, i32* %4, align 4
  %18 = sext i32 %17 to i64
  %19 = getelementptr inbounds [500 x i32], [500 x i32]* %3, i64 0, i64 %18
  %20 = call i32 (i8*, ...) @__isoc99_scanf(i8* getelementptr inbounds ([3 x i8], [3 x i8]* @.str, i64 0, i64 0), i32* %19)
  %21 = load i32, i32* %4, align 4
  %22 = sext i32 %21 to i64
  %23 = getelementptr inbounds [500 x i32], [500 x i32]* %3, i64 0, i64 %22
  %24 = load i32, i32* %23, align 4
  %25 = sitofp i32 %24 to float
  %26 = load float, float* %8, align 4
  %27 = fadd float %26, %25
  store float %27, float* %8, align 4
  br label %28

28:                                               ; preds = %16
  %29 = load i32, i32* %4, align 4
  %30 = add nsw i32 %29, 1
  store i32 %30, i32* %4, align 4
  br label %12

31:                                               ; preds = %12
  %32 = load float, float* %8, align 4
  %33 = load i32, i32* %2, align 4
  %34 = sitofp i32 %33 to float
  %35 = fdiv float %32, %34
  store float %35, float* %8, align 4
  store i32 0, i32* %4, align 4
  br label %36

36:                                               ; preds = %82, %31
  %37 = load i32, i32* %4, align 4
  %38 = load i32, i32* %2, align 4
  %39 = icmp slt i32 %37, %38
  br i1 %39, label %40, label %85

40:                                               ; preds = %36
  %41 = load i32, i32* %4, align 4
  %42 = sext i32 %41 to i64
  %43 = getelementptr inbounds [500 x i32], [500 x i32]* %3, i64 0, i64 %42
  %44 = load i32, i32* %43, align 4
  %45 = sitofp i32 %44 to float
  %46 = load float, float* %8, align 4
  %47 = fsub float %45, %46
  %48 = fcmp ogt float %47, 0.000000e+00
  br i1 %48, label %49, label %57

49:                                               ; preds = %40
  %50 = load i32, i32* %4, align 4
  %51 = sext i32 %50 to i64
  %52 = getelementptr inbounds [500 x i32], [500 x i32]* %3, i64 0, i64 %51
  %53 = load i32, i32* %52, align 4
  %54 = sitofp i32 %53 to float
  %55 = load float, float* %8, align 4
  %56 = fsub float %54, %55
  br label %65

57:                                               ; preds = %40
  %58 = load float, float* %8, align 4
  %59 = load i32, i32* %4, align 4
  %60 = sext i32 %59 to i64
  %61 = getelementptr inbounds [500 x i32], [500 x i32]* %3, i64 0, i64 %60
  %62 = load i32, i32* %61, align 4
  %63 = sitofp i32 %62 to float
  %64 = fsub float %58, %63
  br label %65

65:                                               ; preds = %57, %49
  %66 = phi float [ %56, %49 ], [ %64, %57 ]
  %67 = load i32, i32* %4, align 4
  %68 = sext i32 %67 to i64
  %69 = getelementptr inbounds [500 x float], [500 x float]* %9, i64 0, i64 %68
  store float %66, float* %69, align 4
  %70 = load float, float* %10, align 4
  %71 = load i32, i32* %4, align 4
  %72 = sext i32 %71 to i64
  %73 = getelementptr inbounds [500 x float], [500 x float]* %9, i64 0, i64 %72
  %74 = load float, float* %73, align 4
  %75 = fcmp olt float %70, %74
  br i1 %75, label %76, label %81

76:                                               ; preds = %65
  %77 = load i32, i32* %4, align 4
  %78 = sext i32 %77 to i64
  %79 = getelementptr inbounds [500 x float], [500 x float]* %9, i64 0, i64 %78
  %80 = load float, float* %79, align 4
  store float %80, float* %10, align 4
  br label %81

81:                                               ; preds = %76, %65
  br label %82

82:                                               ; preds = %81
  %83 = load i32, i32* %4, align 4
  %84 = add nsw i32 %83, 1
  store i32 %84, i32* %4, align 4
  br label %36

85:                                               ; preds = %36
  store i32 0, i32* %4, align 4
  br label %86

86:                                               ; preds = %108, %85
  %87 = load i32, i32* %4, align 4
  %88 = load i32, i32* %2, align 4
  %89 = icmp slt i32 %87, %88
  br i1 %89, label %90, label %111

90:                                               ; preds = %86
  %91 = load i32, i32* %4, align 4
  %92 = sext i32 %91 to i64
  %93 = getelementptr inbounds [500 x float], [500 x float]* %9, i64 0, i64 %92
  %94 = load float, float* %93, align 4
  %95 = load float, float* %10, align 4
  %96 = fcmp oeq float %94, %95
  br i1 %96, label %97, label %107

97:                                               ; preds = %90
  %98 = load i32, i32* %4, align 4
  %99 = sext i32 %98 to i64
  %100 = getelementptr inbounds [500 x i32], [500 x i32]* %3, i64 0, i64 %99
  %101 = load i32, i32* %100, align 4
  %102 = load i32, i32* %6, align 4
  %103 = sext i32 %102 to i64
  %104 = getelementptr inbounds [500 x i32], [500 x i32]* %7, i64 0, i64 %103
  store i32 %101, i32* %104, align 4
  %105 = load i32, i32* %6, align 4
  %106 = add nsw i32 %105, 1
  store i32 %106, i32* %6, align 4
  br label %107

107:                                              ; preds = %97, %90
  br label %108

108:                                              ; preds = %107
  %109 = load i32, i32* %4, align 4
  %110 = add nsw i32 %109, 1
  store i32 %110, i32* %4, align 4
  br label %86

111:                                              ; preds = %86
  store i32 0, i32* %4, align 4
  br label %112

112:                                              ; preds = %161, %111
  %113 = load i32, i32* %4, align 4
  %114 = load i32, i32* %6, align 4
  %115 = sub nsw i32 %114, 1
  %116 = icmp slt i32 %113, %115
  br i1 %116, label %117, label %164

117:                                              ; preds = %112
  store i32 0, i32* %5, align 4
  br label %118

118:                                              ; preds = %157, %117
  %119 = load i32, i32* %5, align 4
  %120 = load i32, i32* %6, align 4
  %121 = sub nsw i32 %120, 1
  %122 = load i32, i32* %4, align 4
  %123 = sub nsw i32 %121, %122
  %124 = icmp slt i32 %119, %123
  br i1 %124, label %125, label %160

125:                                              ; preds = %118
  %126 = load i32, i32* %5, align 4
  %127 = sext i32 %126 to i64
  %128 = getelementptr inbounds [500 x i32], [500 x i32]* %7, i64 0, i64 %127
  %129 = load i32, i32* %128, align 4
  %130 = load i32, i32* %5, align 4
  %131 = add nsw i32 %130, 1
  %132 = sext i32 %131 to i64
  %133 = getelementptr inbounds [500 x i32], [500 x i32]* %7, i64 0, i64 %132
  %134 = load i32, i32* %133, align 4
  %135 = icmp sgt i32 %129, %134
  br i1 %135, label %136, label %156

136:                                              ; preds = %125
  %137 = load i32, i32* %5, align 4
  %138 = sext i32 %137 to i64
  %139 = getelementptr inbounds [500 x i32], [500 x i32]* %7, i64 0, i64 %138
  %140 = load i32, i32* %139, align 4
  %141 = sitofp i32 %140 to float
  store float %141, float* %10, align 4
  %142 = load i32, i32* %5, align 4
  %143 = add nsw i32 %142, 1
  %144 = sext i32 %143 to i64
  %145 = getelementptr inbounds [500 x i32], [500 x i32]* %7, i64 0, i64 %144
  %146 = load i32, i32* %145, align 4
  %147 = load i32, i32* %5, align 4
  %148 = sext i32 %147 to i64
  %149 = getelementptr inbounds [500 x i32], [500 x i32]* %7, i64 0, i64 %148
  store i32 %146, i32* %149, align 4
  %150 = load float, float* %10, align 4
  %151 = fptosi float %150 to i32
  %152 = load i32, i32* %5, align 4
  %153 = add nsw i32 %152, 1
  %154 = sext i32 %153 to i64
  %155 = getelementptr inbounds [500 x i32], [500 x i32]* %7, i64 0, i64 %154
  store i32 %151, i32* %155, align 4
  br label %156

156:                                              ; preds = %136, %125
  br label %157

157:                                              ; preds = %156
  %158 = load i32, i32* %5, align 4
  %159 = add nsw i32 %158, 1
  store i32 %159, i32* %5, align 4
  br label %118

160:                                              ; preds = %118
  br label %161

161:                                              ; preds = %160
  %162 = load i32, i32* %4, align 4
  %163 = add nsw i32 %162, 1
  store i32 %163, i32* %4, align 4
  br label %112

164:                                              ; preds = %112
  store i32 0, i32* %4, align 4
  br label %165

165:                                              ; preds = %181, %164
  %166 = load i32, i32* %4, align 4
  %167 = load i32, i32* %6, align 4
  %168 = icmp slt i32 %166, %167
  br i1 %168, label %169, label %184

169:                                              ; preds = %165
  %170 = load i32, i32* %4, align 4
  %171 = sext i32 %170 to i64
  %172 = getelementptr inbounds [500 x i32], [500 x i32]* %7, i64 0, i64 %171
  %173 = load i32, i32* %172, align 4
  %174 = load i32, i32* %4, align 4
  %175 = load i32, i32* %6, align 4
  %176 = sub nsw i32 %175, 1
  %177 = icmp eq i32 %174, %176
  %178 = zext i1 %177 to i64
  %179 = select i1 %177, i32 10, i32 44
  %180 = call i32 (i8*, ...) @printf(i8* getelementptr inbounds ([5 x i8], [5 x i8]* @.str.1, i64 0, i64 0), i32 %173, i32 %179)
  br label %181

181:                                              ; preds = %169
  %182 = load i32, i32* %4, align 4
  %183 = add nsw i32 %182, 1
  store i32 %183, i32* %4, align 4
  br label %165

184:                                              ; preds = %165
  %185 = load i32, i32* %1, align 4
  ret i32 %185
}

declare dso_local i32 @__isoc99_scanf(i8*, ...) #1

declare dso_local i32 @printf(i8*, ...) #1


!llvm.module.flags = !{!0}
!llvm.ident = !{!1}

!0 = !{i32 1, !"wchar_size", i32 4}
!1 = !{!"clang version 10.0.0-4ubuntu1 "}
